target datalayout = "e-m:e-p270:32:32-p271:32:32-p272:64:64-i64:64-i128:128-f80:128-n8:16:32:64-S128"
target triple = "x86_64-pc-linux-gnu"

%struct.except_id_t = type { i64, i64 }
%struct.except_stacknode = type { ptr, i32, %union.anon.8 }
%union.anon.8 = type { ptr }
%struct.except_catch = type { ptr, i64, %struct.except_t, [1 x %struct.__jmp_buf_tag] }
%struct.except_t = type { %struct.except_id_t, ptr, ptr }
%struct.__jmp_buf_tag = type { [8 x i64], i32, %struct.__sigset_t }
%struct.__sigset_t = type { [16 x i64] }

@dissect_t125_heur.catch_spec = internal constant [1 x %struct.except_id_t] [%struct.except_id_t { i64 1, i64 0 }], align 16

; Function Attrs: null_pointer_is_valid sspstrong uwtable
define internal zeroext i1 @dissect_t125_heur(ptr noundef %0, ptr noundef %1, ptr noundef %2, ptr noundef %3) #0 {
  %5 = alloca i1, align 1
  %6 = alloca ptr, align 8
  %7 = alloca ptr, align 8
  %8 = alloca ptr, align 8
  %9 = alloca ptr, align 8
  %10 = alloca i8, align 1
  %11 = alloca i8, align 1
  %12 = alloca i32, align 4
  %13 = alloca i8, align 1
  %14 = alloca ptr, align 8
  %15 = alloca i32, align 4
  %16 = alloca %struct.except_stacknode, align 8
  %17 = alloca %struct.except_catch, align 8
  %18 = alloca i32, align 4
  %19 = alloca i8, align 1
  store ptr %0, ptr %6, align 8
  store ptr %1, ptr %7, align 8
  store ptr %2, ptr %8, align 8
  store ptr %3, ptr %9, align 8
  call void @llvm.lifetime.start.p0(i64 1, ptr %10) #5
  call void @llvm.lifetime.start.p0(i64 1, ptr %11) #5
  call void @llvm.lifetime.start.p0(i64 4, ptr %12) #5
  call void @llvm.lifetime.start.p0(i64 1, ptr %13) #5
  store volatile i8 0, ptr %13, align 1
  call void @llvm.lifetime.start.p0(i64 8, ptr %14) #5
  call void @llvm.lifetime.start.p0(i64 4, ptr %15) #5
  store volatile i32 0, ptr %15, align 4
  call void @llvm.lifetime.start.p0(i64 24, ptr %16) #5
  call void @llvm.lifetime.start.p0(i64 248, ptr %17) #5
  call void @except_setup_try(ptr noundef %16, ptr noundef %17, ptr noundef @dissect_t125_heur.catch_spec, i64 noundef 1)
  %20 = getelementptr inbounds nuw %struct.except_catch, ptr %17, i32 0, i32 3
  %21 = getelementptr inbounds [1 x %struct.__jmp_buf_tag], ptr %20, i64 0, i64 0
  %22 = call i32 @_setjmp(ptr noundef %21) #6
  %23 = icmp ne i32 %22, 0
  br i1 %23, label %24, label %26

24:                                               ; preds = %4
  %25 = getelementptr inbounds nuw %struct.except_catch, ptr %17, i32 0, i32 2
  store volatile ptr %25, ptr %14, align 8
  br label %27

26:                                               ; preds = %4
  store volatile ptr null, ptr %14, align 8
  br label %27

27:                                               ; preds = %26, %24
  %28 = load volatile i32, ptr %15, align 4
  %29 = and i32 %28, 1
  %30 = icmp ne i32 %29, 0
  br i1 %30, label %31, label %34

31:                                               ; preds = %27
  %32 = load volatile i32, ptr %15, align 4
  %33 = or i32 %32, 2
  store volatile i32 %33, ptr %15, align 4
  br label %34

34:                                               ; preds = %31, %27
  %35 = load volatile i32, ptr %15, align 4
  %36 = and i32 %35, -2
  store volatile i32 %36, ptr %15, align 4
  %37 = load volatile i32, ptr %15, align 4
  %38 = icmp eq i32 %37, 0
  br i1 %38, label %39, label %45

39:                                               ; preds = %34
  %40 = load volatile ptr, ptr %14, align 8
  %41 = icmp eq ptr %40, null
  br i1 %41, label %42, label %45

42:                                               ; preds = %39
  %43 = load ptr, ptr %6, align 8
  %44 = call i32 @get_ber_identifier(ptr noundef %43, i32 noundef 0, ptr noundef %10, ptr noundef %11, ptr noundef %12)
  br label %45

45:                                               ; preds = %42, %39, %34
  %46 = load volatile i32, ptr %15, align 4
  %47 = icmp eq i32 %46, 0
  br i1 %47, label %48, label %86

48:                                               ; preds = %45
  %49 = load volatile ptr, ptr %14, align 8
  %50 = icmp ne ptr %49, null
  br i1 %50, label %51, label %86

51:                                               ; preds = %48
  %52 = load volatile ptr, ptr %14, align 8
  %53 = getelementptr inbounds nuw %struct.except_t, ptr %52, i32 0, i32 0
  %54 = getelementptr inbounds nuw %struct.except_id_t, ptr %53, i32 0, i32 1
  %55 = load volatile i64, ptr %54, align 8
  %56 = icmp eq i64 %55, 1
  br i1 %56, label %81, label %57

57:                                               ; preds = %51
  %58 = load volatile ptr, ptr %14, align 8
  %59 = getelementptr inbounds nuw %struct.except_t, ptr %58, i32 0, i32 0
  %60 = getelementptr inbounds nuw %struct.except_id_t, ptr %59, i32 0, i32 1
  %61 = load volatile i64, ptr %60, align 8
  %62 = icmp eq i64 %61, 4
  br i1 %62, label %81, label %63

63:                                               ; preds = %57
  %64 = load volatile ptr, ptr %14, align 8
  %65 = getelementptr inbounds nuw %struct.except_t, ptr %64, i32 0, i32 0
  %66 = getelementptr inbounds nuw %struct.except_id_t, ptr %65, i32 0, i32 1
  %67 = load volatile i64, ptr %66, align 8
  %68 = icmp eq i64 %67, 3
  br i1 %68, label %81, label %69

69:                                               ; preds = %63
  %70 = load volatile ptr, ptr %14, align 8
  %71 = getelementptr inbounds nuw %struct.except_t, ptr %70, i32 0, i32 0
  %72 = getelementptr inbounds nuw %struct.except_id_t, ptr %71, i32 0, i32 1
  %73 = load volatile i64, ptr %72, align 8
  %74 = icmp eq i64 %73, 2
  br i1 %74, label %81, label %75

75:                                               ; preds = %69
  %76 = load volatile ptr, ptr %14, align 8
  %77 = getelementptr inbounds nuw %struct.except_t, ptr %76, i32 0, i32 0
  %78 = getelementptr inbounds nuw %struct.except_id_t, ptr %77, i32 0, i32 1
  %79 = load volatile i64, ptr %78, align 8
  %80 = icmp eq i64 %79, 7
  br i1 %80, label %81, label %86

81:                                               ; preds = %75, %69, %63, %57, %51
  %82 = load volatile i32, ptr %15, align 4
  %83 = or i32 %82, 1
  store volatile i32 %83, ptr %15, align 4
  %84 = icmp ne i32 %83, 0
  br i1 %84, label %85, label %86

85:                                               ; preds = %81
  store volatile i8 1, ptr %13, align 1
  br label %86

86:                                               ; preds = %85, %81, %75, %48, %45
  %87 = load volatile i32, ptr %15, align 4
  %88 = and i32 %87, 1
  %89 = icmp ne i32 %88, 0
  br i1 %89, label %95, label %90

90:                                               ; preds = %86
  %91 = load volatile ptr, ptr %14, align 8
  %92 = icmp ne ptr %91, null
  br i1 %92, label %93, label %95

93:                                               ; preds = %90
  %94 = load volatile ptr, ptr %14, align 8
  call void @except_rethrow(ptr noundef %94) #7
  unreachable

95:                                               ; preds = %90, %86
  %96 = getelementptr inbounds nuw %struct.except_catch, ptr %17, i32 0, i32 2
  %97 = getelementptr inbounds nuw %struct.except_t, ptr %96, i32 0, i32 2
  %98 = load volatile ptr, ptr %97, align 8
  call void @except_free(ptr noundef %98)
  %99 = call ptr @except_pop()
  call void @llvm.lifetime.end.p0(i64 248, ptr %17) #5
  call void @llvm.lifetime.end.p0(i64 24, ptr %16) #5
  call void @llvm.lifetime.end.p0(i64 4, ptr %15) #5
  call void @llvm.lifetime.end.p0(i64 8, ptr %14) #5
  %100 = load volatile i8, ptr %13, align 1, !range !6, !noundef !7
  %101 = trunc i8 %100 to i1
  br i1 %101, label %102, label %103

102:                                              ; preds = %95
  store i1 false, ptr %5, align 1
  store i32 1, ptr %18, align 4
  br label %133

103:                                              ; preds = %95
  %104 = load i8, ptr %10, align 1
  %105 = sext i8 %104 to i32
  %106 = icmp eq i32 %105, 1
  br i1 %106, label %107, label %118

107:                                              ; preds = %103
  %108 = load i32, ptr %12, align 4
  %109 = icmp sge i32 %108, 101
  br i1 %109, label %110, label %118

110:                                              ; preds = %107
  %111 = load i32, ptr %12, align 4
  %112 = icmp sle i32 %111, 104
  br i1 %112, label %113, label %118

113:                                              ; preds = %110
  %114 = load ptr, ptr %6, align 8
  %115 = load ptr, ptr %7, align 8
  %116 = load ptr, ptr %8, align 8
  %117 = call i32 @dissect_t125(ptr noundef %114, ptr noundef %115, ptr noundef %116, ptr noundef null)
  store i1 true, ptr %5, align 1
  store i32 1, ptr %18, align 4
  br label %133

118:                                              ; preds = %110, %107, %103
  call void @llvm.lifetime.start.p0(i64 1, ptr %19) #5
  %119 = load ptr, ptr %6, align 8
  %120 = call zeroext i8 @tvb_get_uint8(ptr noundef %119, i32 noundef 0)
  %121 = zext i8 %120 to i32
  %122 = ashr i32 %121, 2
  %123 = trunc i32 %122 to i8
  store i8 %123, ptr %19, align 1
  %124 = load i8, ptr %19, align 1
  %125 = zext i8 %124 to i32
  switch i32 %125, label %131 [
    i32 1, label %126
    i32 10, label %126
    i32 11, label %126
    i32 14, label %126
    i32 15, label %126
    i32 8, label %126
    i32 25, label %126
    i32 26, label %126
  ]

126:                                              ; preds = %118, %118, %118, %118, %118, %118, %118, %118
  %127 = load ptr, ptr %6, align 8
  %128 = load ptr, ptr %7, align 8
  %129 = load ptr, ptr %8, align 8
  %130 = call i32 @dissect_t125(ptr noundef %127, ptr noundef %128, ptr noundef %129, ptr noundef null)
  store i1 true, ptr %5, align 1
  store i32 1, ptr %18, align 4
  br label %132

131:                                              ; preds = %118
  store i1 false, ptr %5, align 1
  store i32 1, ptr %18, align 4
  br label %132

132:                                              ; preds = %131, %126
  call void @llvm.lifetime.end.p0(i64 1, ptr %19) #5
  br label %133

133:                                              ; preds = %132, %113, %102
  call void @llvm.lifetime.end.p0(i64 1, ptr %13) #5
  call void @llvm.lifetime.end.p0(i64 4, ptr %12) #5
  call void @llvm.lifetime.end.p0(i64 1, ptr %11) #5
  call void @llvm.lifetime.end.p0(i64 1, ptr %10) #5
  %134 = load i1, ptr %5, align 1
  ret i1 %134
}