; Function Attrs: null_pointer_is_valid sspstrong uwtable
define internal noundef zeroext i1 @dissect_t125_heur(ptr noundef %0, ptr noundef %1, ptr noundef %2, ptr readnone captures(none) %3) #0 {
  %5 = alloca i8, align 1
  %6 = alloca i8, align 1
  %7 = alloca i32, align 4
  %8 = alloca i8, align 1
  %9 = alloca ptr, align 8
  %10 = alloca i32, align 4
  %11 = alloca %struct.except_stacknode, align 8
  %12 = alloca %struct.except_catch, align 8
  call void @llvm.lifetime.start.p0(i64 1, ptr nonnull %5) #5
  call void @llvm.lifetime.start.p0(i64 1, ptr nonnull %6) #5
  call void @llvm.lifetime.start.p0(i64 4, ptr nonnull %7) #5
  call void @llvm.lifetime.start.p0(i64 1, ptr nonnull %8)
  store volatile i8 0, ptr %8, align 1
  call void @llvm.lifetime.start.p0(i64 8, ptr nonnull %9)
  call void @llvm.lifetime.start.p0(i64 4, ptr nonnull %10)
  store volatile i32 0, ptr %10, align 4
  call void @llvm.lifetime.start.p0(i64 24, ptr nonnull %11) #5
  call void @llvm.lifetime.start.p0(i64 248, ptr nonnull %12) #5
  call void @except_setup_try(ptr noundef nonnull %11, ptr noundef nonnull %12, ptr noundef nonnull @dissect_t125_heur.catch_spec, i64 noundef 1)
  %13 = getelementptr inbounds nuw i8, ptr %12, i64 48
  %14 = call i32 @_setjmp(ptr noundef nonnull %13) #6
  %.not = icmp eq i32 %14, 0
  %15 = getelementptr inbounds nuw i8, ptr %12, i64 16
  %.sink = select i1 %.not, ptr null, ptr %15
  store volatile ptr %.sink, ptr %9, align 8
  %.0..0..0..0. = load volatile i32, ptr %10, align 4
  %16 = and i32 %.0..0..0..0., 1
  %.not29 = icmp eq i32 %16, 0
  br i1 %.not29, label %19, label %17

17:                                               ; preds = %4
  %.0..0..0..0.4 = load volatile i32, ptr %10, align 4
  %18 = or i32 %.0..0..0..0.4, 2
  store volatile i32 %18, ptr %10, align 4
  br label %19

19:                                               ; preds = %17, %4
  %.0..0..0..0.5 = load volatile i32, ptr %10, align 4
  %20 = and i32 %.0..0..0..0.5, -2
  store volatile i32 %20, ptr %10, align 4
  %.0..0..0..0.6 = load volatile i32, ptr %10, align 4
  %21 = icmp eq i32 %.0..0..0..0.6, 0
  br i1 %21, label %22, label %26

22:                                               ; preds = %19
  %.0..0..0..0.10 = load volatile ptr, ptr %9, align 8
  %23 = icmp eq ptr %.0..0..0..0.10, null
  br i1 %23, label %24, label %26

24:                                               ; preds = %22
  %25 = call i32 @get_ber_identifier(ptr noundef %0, i32 noundef 0, ptr noundef nonnull %5, ptr noundef nonnull %6, ptr noundef nonnull %7)
  br label %26

26:                                               ; preds = %24, %22, %19
  %.0..0..0..0.7 = load volatile i32, ptr %10, align 4
  %27 = icmp eq i32 %.0..0..0..0.7, 0
  br i1 %27, label %28, label %51

28:                                               ; preds = %26
  %.0..0..0..0.11 = load volatile ptr, ptr %9, align 8
  %.not30 = icmp eq ptr %.0..0..0..0.11, null
  br i1 %.not30, label %51, label %29

29:                                               ; preds = %28
  %.0..0..0..0.12 = load volatile ptr, ptr %9, align 8
  %30 = getelementptr inbounds nuw i8, ptr %.0..0..0..0.12, i64 8
  %31 = load volatile i64, ptr %30, align 8
  %32 = icmp eq i64 %31, 1
  br i1 %32, label %49, label %33

33:                                               ; preds = %29
  %.0..0..0..0.13 = load volatile ptr, ptr %9, align 8
  %34 = getelementptr inbounds nuw i8, ptr %.0..0..0..0.13, i64 8
  %35 = load volatile i64, ptr %34, align 8
  %36 = icmp eq i64 %35, 4
  br i1 %36, label %49, label %37

37:                                               ; preds = %33
  %.0..0..0..0.14 = load volatile ptr, ptr %9, align 8
  %38 = getelementptr inbounds nuw i8, ptr %.0..0..0..0.14, i64 8
  %39 = load volatile i64, ptr %38, align 8
  %40 = icmp eq i64 %39, 3
  br i1 %40, label %49, label %41

41:                                               ; preds = %37
  %.0..0..0..0.15 = load volatile ptr, ptr %9, align 8
  %42 = getelementptr inbounds nuw i8, ptr %.0..0..0..0.15, i64 8
  %43 = load volatile i64, ptr %42, align 8
  %44 = icmp eq i64 %43, 2
  br i1 %44, label %49, label %45

45:                                               ; preds = %41
  %.0..0..0..0.16 = load volatile ptr, ptr %9, align 8
  %46 = getelementptr inbounds nuw i8, ptr %.0..0..0..0.16, i64 8
  %47 = load volatile i64, ptr %46, align 8
  %48 = icmp eq i64 %47, 7
  br i1 %48, label %49, label %51

49:                                               ; preds = %45, %41, %37, %33, %29
  %.0..0..0..0.8 = load volatile i32, ptr %10, align 4
  %50 = or i32 %.0..0..0..0.8, 1
  store volatile i32 %50, ptr %10, align 4
  store volatile i8 1, ptr %8, align 1
  br label %51

51:                                               ; preds = %49, %45, %28, %26
  %.0..0..0..0.9 = load volatile i32, ptr %10, align 4
  %52 = and i32 %.0..0..0..0.9, 1
  %.not31 = icmp eq i32 %52, 0
  br i1 %.not31, label %53, label %55

53:                                               ; preds = %51
  %.0..0..0..0.17 = load volatile ptr, ptr %9, align 8
  %.not32 = icmp eq ptr %.0..0..0..0.17, null
  br i1 %.not32, label %55, label %54

54:                                               ; preds = %53
  %.0..0..0..0.18 = load volatile ptr, ptr %9, align 8
  call void @except_rethrow(ptr noundef %.0..0..0..0.18) #7
  unreachable

55:                                               ; preds = %53, %51
  %56 = getelementptr inbounds nuw i8, ptr %12, i64 40
  %57 = load volatile ptr, ptr %56, align 8
  call void @except_free(ptr noundef %57)
  %58 = call ptr @except_pop()
  call void @llvm.lifetime.end.p0(i64 248, ptr nonnull %12) #5
  call void @llvm.lifetime.end.p0(i64 24, ptr nonnull %11) #5
  call void @llvm.lifetime.end.p0(i64 4, ptr nonnull %10)
  call void @llvm.lifetime.end.p0(i64 8, ptr nonnull %9)
  %.0..0..0..0.19 = load volatile i8, ptr %8, align 1, !range !6, !noundef !7
  %59 = trunc nuw i8 %.0..0..0..0.19 to i1
  br i1 %59, label %70, label %60

60:                                               ; preds = %55
  %61 = load i8, ptr %5, align 1
  %62 = icmp eq i8 %61, 1
  %63 = load i32, ptr %7, align 4
  %64 = add i32 %63, -101
  %65 = icmp ult i32 %64, 4
  %or.cond3 = select i1 %62, i1 %65, i1 false
  br i1 %or.cond3, label %.sink.split, label %66

66:                                               ; preds = %60
  %67 = call zeroext i8 @tvb_get_uint8(ptr noundef %0, i32 noundef 0)
  %68 = lshr i8 %67, 2
  switch i8 %68, label %70 [
    i8 1, label %.sink.split
    i8 10, label %.sink.split
    i8 11, label %.sink.split
    i8 14, label %.sink.split
    i8 15, label %.sink.split
    i8 8, label %.sink.split
    i8 25, label %.sink.split
    i8 26, label %.sink.split
  ]

.sink.split:                                      ; preds = %66, %66, %66, %66, %66, %66, %66, %66, %60
  %69 = call i32 @dissect_t125(ptr noundef %0, ptr noundef %1, ptr noundef %2, ptr poison)
  br label %70

70:                                               ; preds = %.sink.split, %66, %55
  %.0 = phi i1 [ false, %55 ], [ false, %66 ], [ true, %.sink.split ]
  call void @llvm.lifetime.end.p0(i64 1, ptr nonnull %8)
  call void @llvm.lifetime.end.p0(i64 4, ptr nonnull %7) #5
  call void @llvm.lifetime.end.p0(i64 1, ptr nonnull %6) #5
  call void @llvm.lifetime.end.p0(i64 1, ptr nonnull %5) #5
  ret i1 %.0
}